target datalayout = "e-m:e-p270:32:32-p271:32:32-p272:64:64-i64:64-i128:128-f80:128-n8:16:32:64-S128"
target triple = "x86_64-unknown-linux-gnu"

%class.b2Island = type { ptr, ptr, ptr, ptr, ptr, ptr, ptr, i32, i32, i32, i32, i32, i32 }

; Function Attrs: mustprogress uwtable
define hidden void @_ZN8b2IslandC2EiiiP16b2StackAllocatorP17b2ContactListener(ptr noundef nonnull align 8 dereferenceable(80) %this, i32 noundef %bodyCapacity, i32 noundef %contactCapacity, i32 noundef %jointCapacity, ptr noundef %allocator, ptr noundef %listener) unnamed_addr #0 align 2 {
entry:
  %this.addr = alloca ptr, align 8
  %bodyCapacity.addr = alloca i32, align 4
  %contactCapacity.addr = alloca i32, align 4
  %jointCapacity.addr = alloca i32, align 4
  %allocator.addr = alloca ptr, align 8
  %listener.addr = alloca ptr, align 8
  store ptr %this, ptr %this.addr, align 8
  store i32 %bodyCapacity, ptr %bodyCapacity.addr, align 4
  store i32 %contactCapacity, ptr %contactCapacity.addr, align 4
  store i32 %jointCapacity, ptr %jointCapacity.addr, align 4
  store ptr %allocator, ptr %allocator.addr, align 8
  store ptr %listener, ptr %listener.addr, align 8
  %this1 = load ptr, ptr %this.addr, align 8
  %0 = load i32, ptr %bodyCapacity.addr, align 4
  %m_bodyCapacity = getelementptr inbounds %class.b2Island, ptr %this1, i32 0, i32 10
  store i32 %0, ptr %m_bodyCapacity, align 4
  %1 = load i32, ptr %contactCapacity.addr, align 4
  %m_contactCapacity = getelementptr inbounds %class.b2Island, ptr %this1, i32 0, i32 11
  store i32 %1, ptr %m_contactCapacity, align 8
  %2 = load i32, ptr %jointCapacity.addr, align 4
  %m_jointCapacity = getelementptr inbounds %class.b2Island, ptr %this1, i32 0, i32 12
  store i32 %2, ptr %m_jointCapacity, align 4
  %m_bodyCount = getelementptr inbounds %class.b2Island, ptr %this1, i32 0, i32 7
  store i32 0, ptr %m_bodyCount, align 8
  %m_contactCount = getelementptr inbounds %class.b2Island, ptr %this1, i32 0, i32 9
  store i32 0, ptr %m_contactCount, align 8
  %m_jointCount = getelementptr inbounds %class.b2Island, ptr %this1, i32 0, i32 8
  store i32 0, ptr %m_jointCount, align 4
  %3 = load ptr, ptr %allocator.addr, align 8
  %m_allocator = getelementptr inbounds %class.b2Island, ptr %this1, i32 0, i32 0
  store ptr %3, ptr %m_allocator, align 8
  %4 = load ptr, ptr %listener.addr, align 8
  %m_listener = getelementptr inbounds %class.b2Island, ptr %this1, i32 0, i32 1
  store ptr %4, ptr %m_listener, align 8
  %m_allocator2 = getelementptr inbounds %class.b2Island, ptr %this1, i32 0, i32 0
  %5 = load ptr, ptr %m_allocator2, align 8
  %6 = load i32, ptr %bodyCapacity.addr, align 4
  %conv = sext i32 %6 to i64
  %mul = mul i64 %conv, 8
  %conv3 = trunc i64 %mul to i32
  %call = call noundef ptr @_ZN16b2StackAllocator8AllocateEi(ptr noundef nonnull align 8 dereferenceable(102932) %5, i32 noundef %conv3)
  %m_bodies = getelementptr inbounds %class.b2Island, ptr %this1, i32 0, i32 2
  store ptr %call, ptr %m_bodies, align 8
  %m_allocator4 = getelementptr inbounds %class.b2Island, ptr %this1, i32 0, i32 0
  %7 = load ptr, ptr %m_allocator4, align 8
  %8 = load i32, ptr %contactCapacity.addr, align 4
  %conv5 = sext i32 %8 to i64
  %mul6 = mul i64 %conv5, 8
  %conv7 = trunc i64 %mul6 to i32
  %call8 = call noundef ptr @_ZN16b2StackAllocator8AllocateEi(ptr noundef nonnull align 8 dereferenceable(102932) %7, i32 noundef %conv7)
  %m_contacts = getelementptr inbounds %class.b2Island, ptr %this1, i32 0, i32 3
  store ptr %call8, ptr %m_contacts, align 8
  %m_allocator9 = getelementptr inbounds %class.b2Island, ptr %this1, i32 0, i32 0
  %9 = load ptr, ptr %m_allocator9, align 8
  %10 = load i32, ptr %jointCapacity.addr, align 4
  %conv10 = sext i32 %10 to i64
  %mul11 = mul i64 %conv10, 8
  %conv12 = trunc i64 %mul11 to i32
  %call13 = call noundef ptr @_ZN16b2StackAllocator8AllocateEi(ptr noundef nonnull align 8 dereferenceable(102932) %9, i32 noundef %conv12)
  %m_joints = getelementptr inbounds %class.b2Island, ptr %this1, i32 0, i32 4
  store ptr %call13, ptr %m_joints, align 8
  %m_allocator14 = getelementptr inbounds %class.b2Island, ptr %this1, i32 0, i32 0
  %11 = load ptr, ptr %m_allocator14, align 8
  %m_bodyCapacity15 = getelementptr inbounds %class.b2Island, ptr %this1, i32 0, i32 10
  %12 = load i32, ptr %m_bodyCapacity15, align 4
  %conv16 = sext i32 %12 to i64
  %mul17 = mul i64 %conv16, 12
  %conv18 = trunc i64 %mul17 to i32
  %call19 = call noundef ptr @_ZN16b2StackAllocator8AllocateEi(ptr noundef nonnull align 8 dereferenceable(102932) %11, i32 noundef %conv18)
  %m_velocities = getelementptr inbounds %class.b2Island, ptr %this1, i32 0, i32 6
  store ptr %call19, ptr %m_velocities, align 8
  %m_allocator20 = getelementptr inbounds %class.b2Island, ptr %this1, i32 0, i32 0
  %13 = load ptr, ptr %m_allocator20, align 8
  %m_bodyCapacity21 = getelementptr inbounds %class.b2Island, ptr %this1, i32 0, i32 10
  %14 = load i32, ptr %m_bodyCapacity21, align 4
  %conv22 = sext i32 %14 to i64
  %mul23 = mul i64 %conv22, 12
  %conv24 = trunc i64 %mul23 to i32
  %call25 = call noundef ptr @_ZN16b2StackAllocator8AllocateEi(ptr noundef nonnull align 8 dereferenceable(102932) %13, i32 noundef %conv24)
  %m_positions = getelementptr inbounds %class.b2Island, ptr %this1, i32 0, i32 5
  store ptr %call25, ptr %m_positions, align 8
  ret void
}