; Function Attrs: mustprogress uwtable
define hidden void @_ZN8b2IslandC2EiiiP16b2StackAllocatorP17b2ContactListener(ptr noundef nonnull align 8 captures(none) dereferenceable(80) initializes((0, 80)) %this, i32 noundef %bodyCapacity, i32 noundef %contactCapacity, i32 noundef %jointCapacity, ptr noundef nonnull %allocator, ptr noundef %listener) unnamed_addr #0 align 2 {
entry:
  %m_bodyCapacity = getelementptr inbounds nuw i8, ptr %this, i64 68
  store i32 %bodyCapacity, ptr %m_bodyCapacity, align 4
  %m_contactCapacity = getelementptr inbounds nuw i8, ptr %this, i64 72
  store i32 %contactCapacity, ptr %m_contactCapacity, align 8
  %m_jointCapacity = getelementptr inbounds nuw i8, ptr %this, i64 76
  store i32 %jointCapacity, ptr %m_jointCapacity, align 4
  %m_bodyCount = getelementptr inbounds nuw i8, ptr %this, i64 56
  store i32 0, ptr %m_bodyCount, align 8
  %m_contactCount = getelementptr inbounds nuw i8, ptr %this, i64 64
  store i32 0, ptr %m_contactCount, align 8
  %m_jointCount = getelementptr inbounds nuw i8, ptr %this, i64 60
  store i32 0, ptr %m_jointCount, align 4
  store ptr %allocator, ptr %this, align 8
  %m_listener = getelementptr inbounds nuw i8, ptr %this, i64 8
  store ptr %listener, ptr %m_listener, align 8
  %mul = shl i32 %bodyCapacity, 3
  %call = tail call noundef ptr @_ZN16b2StackAllocator8AllocateEi(ptr noundef nonnull align 8 dereferenceable(102932) %allocator, i32 noundef %mul)
  %m_bodies = getelementptr inbounds nuw i8, ptr %this, i64 16
  store ptr %call, ptr %m_bodies, align 8
  %0 = load ptr, ptr %this, align 8
  %mul6 = shl i32 %contactCapacity, 3
  %call8 = tail call noundef ptr @_ZN16b2StackAllocator8AllocateEi(ptr noundef nonnull align 8 dereferenceable(102932) %0, i32 noundef %mul6)
  %m_contacts = getelementptr inbounds nuw i8, ptr %this, i64 24
  store ptr %call8, ptr %m_contacts, align 8
  %1 = load ptr, ptr %this, align 8
  %mul11 = shl i32 %jointCapacity, 3
  %call13 = tail call noundef ptr @_ZN16b2StackAllocator8AllocateEi(ptr noundef nonnull align 8 dereferenceable(102932) %1, i32 noundef %mul11)
  %m_joints = getelementptr inbounds nuw i8, ptr %this, i64 32
  store ptr %call13, ptr %m_joints, align 8
  %2 = load ptr, ptr %this, align 8
  %3 = load i32, ptr %m_bodyCapacity, align 4
  %mul17 = mul i32 %3, 12
  %call19 = tail call noundef ptr @_ZN16b2StackAllocator8AllocateEi(ptr noundef nonnull align 8 dereferenceable(102932) %2, i32 noundef %mul17)
  %m_velocities = getelementptr inbounds nuw i8, ptr %this, i64 48
  store ptr %call19, ptr %m_velocities, align 8
  %4 = load ptr, ptr %this, align 8
  %5 = load i32, ptr %m_bodyCapacity, align 4
  %mul23 = mul i32 %5, 12
  %call25 = tail call noundef ptr @_ZN16b2StackAllocator8AllocateEi(ptr noundef nonnull align 8 dereferenceable(102932) %4, i32 noundef %mul23)
  %m_positions = getelementptr inbounds nuw i8, ptr %this, i64 40
  store ptr %call25, ptr %m_positions, align 8
  ret void
}